target datalayout = "e-m:e-p270:32:32-p271:32:32-p272:64:64-i64:64-i128:128-f80:128-n8:16:32:64-S128"
target triple = "x86_64-pc-linux-gnu"

%struct.Abc_Frame_t_ = type { ptr, ptr, ptr, ptr, ptr, ptr, ptr, ptr, ptr, ptr, i32, i32, i32, i32, i32, ptr, float, float, i32, i32, ptr, ptr, ptr, double, double, ptr, ptr, ptr, ptr, ptr, ptr, ptr, ptr, ptr, ptr, ptr, ptr, float, ptr, i32, ptr, ptr, ptr, ptr, ptr, i32, i32, i32, i32, i32, i32, ptr, ptr, ptr, ptr, ptr, ptr, i32, i32, ptr, ptr, ptr, ptr, ptr, ptr, ptr, ptr, ptr, ptr, ptr, ptr, ptr, ptr, ptr, ptr, ptr, ptr, ptr, ptr, ptr, ptr, ptr, ptr, ptr, ptr, ptr, ptr, ptr, ptr }
%struct.timespec = type { i64, i64 }

@globalUtilOptind = external global i32, align 4
@.str.46 = private unnamed_addr constant [3 x i8] c"Nh\00", align 1
@.str.47 = private unnamed_addr constant [60 x i8] c"Command line switch \22-N\22 should be followed by an integer.\0A\00", align 1
@.str.48 = private unnamed_addr constant [3 x i8] c"rb\00", align 1
@.str.49 = private unnamed_addr constant [42 x i8] c"usage: sleep [-N <num>] [-h] <file_name>\0A\00", align 1
@.str.50 = private unnamed_addr constant [48 x i8] c"\09              puts ABC to sleep for some time\0A\00", align 1
@.str.51 = private unnamed_addr constant [56 x i8] c"\09-N num      : time duration in seconds [default = %d]\0A\00", align 1
@.str.52 = private unnamed_addr constant [50 x i8] c"\09-h          : toggle printing the command usage\0A\00", align 1
@.str.53 = private unnamed_addr constant [68 x i8] c"\09<file_name> : (optional) waiting begins after the file is created\0A\00", align 1

; Function Attrs: nounwind uwtable
define internal i64 @Abc_Clock() #0 {
  %1 = alloca i64, align 8
  %2 = alloca %struct.timespec, align 8
  %3 = alloca i64, align 8
  %4 = call i32 @clock_gettime(i32 noundef 1, ptr noundef %2) #9
  %5 = icmp slt i32 %4, 0
  br i1 %5, label %6, label %7

6:                                                ; preds = %0
  store i64 -1, ptr %1, align 8
  br label %18

7:                                                ; preds = %0
  %8 = getelementptr inbounds %struct.timespec, ptr %2, i32 0, i32 0
  %9 = load i64, ptr %8, align 8
  %10 = mul nsw i64 %9, 1000000
  store i64 %10, ptr %3, align 8
  %11 = getelementptr inbounds %struct.timespec, ptr %2, i32 0, i32 1
  %12 = load i64, ptr %11, align 8
  %13 = mul nsw i64 %12, 1000000
  %14 = sdiv i64 %13, 1000000000
  %15 = load i64, ptr %3, align 8
  %16 = add nsw i64 %15, %14
  store i64 %16, ptr %3, align 8
  %17 = load i64, ptr %3, align 8
  store i64 %17, ptr %1, align 8
  br label %18

18:                                               ; preds = %7, %6
  %19 = load i64, ptr %1, align 8
  ret i64 %19
}

; Function Attrs: nounwind uwtable
define internal i32 @CmdCommandSleep(ptr noundef %0, i32 noundef %1, ptr noundef %2) #0 {
  %4 = alloca i32, align 4
  %5 = alloca ptr, align 8
  %6 = alloca i32, align 4
  %7 = alloca ptr, align 8
  %8 = alloca i64, align 8
  %9 = alloca ptr, align 8
  %10 = alloca i32, align 4
  %11 = alloca i32, align 4
  %12 = alloca ptr, align 8
  store ptr %0, ptr %5, align 8
  store i32 %1, ptr %6, align 4
  store ptr %2, ptr %7, align 8
  store ptr null, ptr %9, align 8
  store i32 1, ptr %11, align 4
  call void (...) @Extra_UtilGetoptReset()
  br label %13

13:                                               ; preds = %40, %3
  %14 = load i32, ptr %6, align 4
  %15 = load ptr, ptr %7, align 8
  %16 = call i32 @Extra_UtilGetopt(i32 noundef %14, ptr noundef %15, ptr noundef @.str.46)
  store i32 %16, ptr %10, align 4
  %17 = icmp ne i32 %16, -1
  br i1 %17, label %18, label %41

18:                                               ; preds = %13
  %19 = load i32, ptr %10, align 4
  switch i32 %19, label %39 [
    i32 78, label %20
    i32 104, label %38
  ]

20:                                               ; preds = %18
  %21 = load i32, ptr @globalUtilOptind, align 4
  %22 = load i32, ptr %6, align 4
  %23 = icmp sge i32 %21, %22
  br i1 %23, label %24, label %25

24:                                               ; preds = %20
  call void (i32, ptr, ...) @Abc_Print(i32 noundef -1, ptr noundef @.str.47)
  br label %76

25:                                               ; preds = %20
  %26 = load ptr, ptr %7, align 8
  %27 = load i32, ptr @globalUtilOptind, align 4
  %28 = sext i32 %27 to i64
  %29 = getelementptr inbounds ptr, ptr %26, i64 %28
  %30 = load ptr, ptr %29, align 8
  %31 = call i32 @atoi(ptr noundef %30) #10
  store i32 %31, ptr %11, align 4
  %32 = load i32, ptr @globalUtilOptind, align 4
  %33 = add nsw i32 %32, 1
  store i32 %33, ptr @globalUtilOptind, align 4
  %34 = load i32, ptr %11, align 4
  %35 = icmp slt i32 %34, 0
  br i1 %35, label %36, label %37

36:                                               ; preds = %25
  br label %76

37:                                               ; preds = %25
  br label %40

38:                                               ; preds = %18
  br label %76

39:                                               ; preds = %18
  br label %76

40:                                               ; preds = %37
  br label %13, !llvm.loop !6

41:                                               ; preds = %13
  %42 = load i32, ptr %6, align 4
  %43 = load i32, ptr @globalUtilOptind, align 4
  %44 = add nsw i32 %43, 1
  %45 = icmp eq i32 %42, %44
  br i1 %45, label %46, label %64

46:                                               ; preds = %41
  store ptr null, ptr %12, align 8
  %47 = load ptr, ptr %7, align 8
  %48 = load i32, ptr @globalUtilOptind, align 4
  %49 = sext i32 %48 to i64
  %50 = getelementptr inbounds ptr, ptr %47, i64 %49
  %51 = load ptr, ptr %50, align 8
  store ptr %51, ptr %9, align 8
  br label %52

52:                                               ; preds = %56, %46
  %53 = load ptr, ptr %9, align 8
  %54 = call noalias ptr @fopen(ptr noundef %53, ptr noundef @.str.48)
  store ptr %54, ptr %12, align 8
  %55 = icmp eq ptr %54, null
  br i1 %55, label %56, label %57

56:                                               ; preds = %52
  br label %52, !llvm.loop !7

57:                                               ; preds = %52
  %58 = load ptr, ptr %12, align 8
  %59 = icmp ne ptr %58, null
  br i1 %59, label %60, label %63

60:                                               ; preds = %57
  %61 = load ptr, ptr %12, align 8
  %62 = call i32 @fclose(ptr noundef %61)
  br label %63

63:                                               ; preds = %60, %57
  br label %64

64:                                               ; preds = %63, %41
  %65 = call i64 @Abc_Clock()
  %66 = load i32, ptr %11, align 4
  %67 = sext i32 %66 to i64
  %68 = mul nsw i64 %67, 1000000
  %69 = add nsw i64 %65, %68
  store i64 %69, ptr %8, align 8
  br label %70

70:                                               ; preds = %74, %64
  %71 = call i64 @Abc_Clock()
  %72 = load i64, ptr %8, align 8
  %73 = icmp slt i64 %71, %72
  br i1 %73, label %74, label %75

74:                                               ; preds = %70
  br label %70, !llvm.loop !8

75:                                               ; preds = %70
  store i32 0, ptr %4, align 4
  br label %98

76:                                               ; preds = %39, %38, %36, %24
  %77 = load ptr, ptr %5, align 8
  %78 = getelementptr inbounds %struct.Abc_Frame_t_, ptr %77, i32 0, i32 21
  %79 = load ptr, ptr %78, align 8
  %80 = call i32 (ptr, ptr, ...) @fprintf(ptr noundef %79, ptr noundef @.str.49) #9
  %81 = load ptr, ptr %5, align 8
  %82 = getelementptr inbounds %struct.Abc_Frame_t_, ptr %81, i32 0, i32 21
  %83 = load ptr, ptr %82, align 8
  %84 = call i32 (ptr, ptr, ...) @fprintf(ptr noundef %83, ptr noundef @.str.50) #9
  %85 = load ptr, ptr %5, align 8
  %86 = getelementptr inbounds %struct.Abc_Frame_t_, ptr %85, i32 0, i32 21
  %87 = load ptr, ptr %86, align 8
  %88 = load i32, ptr %11, align 4
  %89 = call i32 (ptr, ptr, ...) @fprintf(ptr noundef %87, ptr noundef @.str.51, i32 noundef %88) #9
  %90 = load ptr, ptr %5, align 8
  %91 = getelementptr inbounds %struct.Abc_Frame_t_, ptr %90, i32 0, i32 21
  %92 = load ptr, ptr %91, align 8
  %93 = call i32 (ptr, ptr, ...) @fprintf(ptr noundef %92, ptr noundef @.str.52) #9
  %94 = load ptr, ptr %5, align 8
  %95 = getelementptr inbounds %struct.Abc_Frame_t_, ptr %94, i32 0, i32 21
  %96 = load ptr, ptr %95, align 8
  %97 = call i32 (ptr, ptr, ...) @fprintf(ptr noundef %96, ptr noundef @.str.53) #9
  store i32 1, ptr %4, align 4
  br label %98

98:                                               ; preds = %76, %75
  %99 = load i32, ptr %4, align 4
  ret i32 %99
}