; Function Attrs: nounwind uwtable
define internal range(i32 0, 2) i32 @CmdCommandSleep(ptr noundef readonly captures(none) %0, i32 noundef %1, ptr noundef %2) #0 {
  %4 = alloca %struct.timespec, align 8
  %5 = alloca %struct.timespec, align 8
  tail call void (...) @Extra_UtilGetoptReset() #17
  br label %6

6:                                                ; preds = %11, %3
  %.0 = phi i32 [ 1, %3 ], [ %15, %11 ]
  %7 = tail call i32 @Extra_UtilGetopt(i32 noundef %1, ptr noundef %2, ptr noundef nonnull @.str.46) #17
  switch i32 %7, label %.loopexit28 [
    i32 -1, label %18
    i32 78, label %8
  ]

8:                                                ; preds = %6
  %9 = load i32, ptr @globalUtilOptind, align 4
  %.not25 = icmp slt i32 %9, %1
  br i1 %.not25, label %11, label %10

10:                                               ; preds = %8
  tail call void (i32, ptr, ...) @Abc_Print(i32 noundef -1, ptr noundef nonnull @.str.47)
  br label %.loopexit28

11:                                               ; preds = %8
  %12 = sext i32 %9 to i64
  %13 = getelementptr inbounds ptr, ptr %2, i64 %12
  %14 = load ptr, ptr %13, align 8
  %15 = tail call i32 @atoi(ptr noundef %14) #19
  %16 = add nsw i32 %9, 1
  store i32 %16, ptr @globalUtilOptind, align 4
  %17 = icmp slt i32 %15, 0
  br i1 %17, label %.loopexit28, label %6, !llvm.loop !6

18:                                               ; preds = %6
  %19 = load i32, ptr @globalUtilOptind, align 4
  %20 = add nsw i32 %19, 1
  %21 = icmp eq i32 %1, %20
  br i1 %21, label %22, label %31

22:                                               ; preds = %18
  %23 = sext i32 %19 to i64
  %24 = getelementptr inbounds ptr, ptr %2, i64 %23
  %25 = load ptr, ptr %24, align 8
  br label %26

26:                                               ; preds = %26, %22
  %27 = tail call noalias ptr @fopen(ptr noundef %25, ptr noundef nonnull @.str.48)
  %28 = icmp eq ptr %27, null
  br i1 %28, label %26, label %29, !llvm.loop !7

29:                                               ; preds = %26
  %30 = tail call i32 @fclose(ptr noundef nonnull %27)
  br label %31

31:                                               ; preds = %29, %18
  call void @llvm.lifetime.start.p0(i64 16, ptr nonnull %5)
  %32 = call i32 @clock_gettime(i32 noundef 1, ptr noundef nonnull %5) #17
  %33 = icmp slt i32 %32, 0
  br i1 %33, label %Abc_Clock.exit, label %34

34:                                               ; preds = %31
  %35 = load i64, ptr %5, align 8
  %36 = mul nsw i64 %35, 1000000
  %37 = getelementptr inbounds nuw i8, ptr %5, i64 8
  %38 = load i64, ptr %37, align 8
  %39 = sdiv i64 %38, 1000
  %40 = add nsw i64 %39, %36
  br label %Abc_Clock.exit

Abc_Clock.exit:                                   ; preds = %31, %34
  %.0.i = phi i64 [ %40, %34 ], [ -1, %31 ]
  call void @llvm.lifetime.end.p0(i64 16, ptr nonnull %5)
  %41 = zext nneg i32 %.0 to i64
  %42 = mul nuw nsw i64 %41, 1000000
  %43 = add nsw i64 %.0.i, %42
  %44 = getelementptr inbounds nuw i8, ptr %4, i64 8
  br label %45

45:                                               ; preds = %Abc_Clock.exit27, %Abc_Clock.exit
  call void @llvm.lifetime.start.p0(i64 16, ptr nonnull %4)
  %46 = call i32 @clock_gettime(i32 noundef 1, ptr noundef nonnull %4) #17
  %47 = icmp slt i32 %46, 0
  br i1 %47, label %Abc_Clock.exit27, label %48

48:                                               ; preds = %45
  %49 = load i64, ptr %4, align 8
  %50 = mul nsw i64 %49, 1000000
  %51 = load i64, ptr %44, align 8
  %52 = sdiv i64 %51, 1000
  %53 = add nsw i64 %52, %50
  br label %Abc_Clock.exit27

Abc_Clock.exit27:                                 ; preds = %45, %48
  %.0.i26 = phi i64 [ %53, %48 ], [ -1, %45 ]
  call void @llvm.lifetime.end.p0(i64 16, ptr nonnull %4)
  %54 = icmp slt i64 %.0.i26, %43
  br i1 %54, label %45, label %.loopexit, !llvm.loop !8

.loopexit28:                                      ; preds = %6, %11, %10
  %.1 = phi i32 [ %.0, %10 ], [ %.0, %6 ], [ %15, %11 ]
  %55 = getelementptr inbounds nuw i8, ptr %0, i64 136
  %56 = load ptr, ptr %55, align 8
  %57 = tail call i64 @fwrite(ptr nonnull @.str.49, i64 41, i64 1, ptr %56)
  %58 = load ptr, ptr %55, align 8
  %59 = tail call i64 @fwrite(ptr nonnull @.str.50, i64 47, i64 1, ptr %58)
  %60 = load ptr, ptr %55, align 8
  %61 = tail call i32 (ptr, ptr, ...) @fprintf(ptr noundef %60, ptr noundef nonnull @.str.51, i32 noundef %.1) #17
  %62 = load ptr, ptr %55, align 8
  %63 = tail call i64 @fwrite(ptr nonnull @.str.52, i64 49, i64 1, ptr %62)
  %64 = load ptr, ptr %55, align 8
  %65 = tail call i64 @fwrite(ptr nonnull @.str.53, i64 67, i64 1, ptr %64)
  br label %.loopexit

.loopexit:                                        ; preds = %Abc_Clock.exit27, %.loopexit28
  %.019 = phi i32 [ 1, %.loopexit28 ], [ 0, %Abc_Clock.exit27 ]
  ret i32 %.019
}